target datalayout = "e-m:e-p270:32:32-p271:32:32-p272:64:64-i64:64-i128:128-f80:128-n8:16:32:64-S128"
target triple = "x86_64-pc-linux-gnu"

%union.TValue = type { i64 }
%struct.FuncState = type { ptr, ptr, ptr, ptr, ptr, i32, i32, i32, i32, i32, i32, i32, i32, ptr, i32, i32, i8, i8, i8, i8, [200 x i16], [60 x i16], [60 x i16] }
%struct.BCInsLine = type { i32, i32 }
%struct.ExpDesc = type { %union.anon.2, i32, i32, i32 }
%union.anon.2 = type { %union.TValue }
%struct.anon.3 = type { i32, i32 }

; Function Attrs: nounwind uwtable
define internal void @jmp_patchins(ptr noundef %0, i32 noundef %1, i32 noundef %2) #0 {
  %4 = alloca ptr, align 8
  %5 = alloca i32, align 4
  %6 = alloca i32, align 4
  %7 = alloca ptr, align 8
  %8 = alloca i32, align 4
  store ptr %0, ptr %4, align 8, !tbaa !62
  store i32 %1, ptr %5, align 4, !tbaa !79
  store i32 %2, ptr %6, align 4, !tbaa !79
  call void @llvm.lifetime.start.p0(i64 8, ptr %7) #11
  %9 = load ptr, ptr %4, align 8, !tbaa !62
  %10 = getelementptr inbounds nuw %struct.FuncState, ptr %9, i32 0, i32 13
  %11 = load ptr, ptr %10, align 8, !tbaa !55
  %12 = load i32, ptr %5, align 4, !tbaa !79
  %13 = zext i32 %12 to i64
  %14 = getelementptr inbounds nuw %struct.BCInsLine, ptr %11, i64 %13
  %15 = getelementptr inbounds nuw %struct.BCInsLine, ptr %14, i32 0, i32 0
  store ptr %15, ptr %7, align 8, !tbaa !108
  call void @llvm.lifetime.start.p0(i64 4, ptr %8) #11
  %16 = load i32, ptr %6, align 4, !tbaa !79
  %17 = load i32, ptr %5, align 4, !tbaa !79
  %18 = add i32 %17, 1
  %19 = sub i32 %16, %18
  %20 = add i32 %19, 32768
  store i32 %20, ptr %8, align 4, !tbaa !79
  %21 = load i32, ptr %8, align 4, !tbaa !79
  %22 = icmp ugt i32 %21, 65535
  br i1 %22, label %23, label %27

23:                                               ; preds = %3
  %24 = load ptr, ptr %4, align 8, !tbaa !62
  %25 = getelementptr inbounds nuw %struct.FuncState, ptr %24, i32 0, i32 1
  %26 = load ptr, ptr %25, align 8, !tbaa !64
  call void @err_syntax(ptr noundef %26, i32 noundef 2399) #13
  unreachable

27:                                               ; preds = %3
  %28 = load i32, ptr %8, align 4, !tbaa !79
  %29 = trunc i32 %28 to i16
  %30 = load ptr, ptr %7, align 8, !tbaa !108
  %31 = getelementptr inbounds i16, ptr %30, i64 1
  store i16 %29, ptr %31, align 2, !tbaa !110
  call void @llvm.lifetime.end.p0(i64 4, ptr %8) #11
  call void @llvm.lifetime.end.p0(i64 8, ptr %7) #11
  ret void
}

; Function Attrs: nounwind uwtable
define internal i32 @jmp_next(ptr noundef %0, i32 noundef %1) #0 {
  %3 = alloca i32, align 4
  %4 = alloca ptr, align 8
  %5 = alloca i32, align 4
  %6 = alloca i64, align 8
  %7 = alloca i32, align 4
  store ptr %0, ptr %4, align 8, !tbaa !62
  store i32 %1, ptr %5, align 4, !tbaa !79
  call void @llvm.lifetime.start.p0(i64 8, ptr %6) #11
  %8 = load ptr, ptr %4, align 8, !tbaa !62
  %9 = getelementptr inbounds nuw %struct.FuncState, ptr %8, i32 0, i32 13
  %10 = load ptr, ptr %9, align 8, !tbaa !55
  %11 = load i32, ptr %5, align 4, !tbaa !79
  %12 = zext i32 %11 to i64
  %13 = getelementptr inbounds nuw %struct.BCInsLine, ptr %10, i64 %12
  %14 = getelementptr inbounds nuw %struct.BCInsLine, ptr %13, i32 0, i32 0
  %15 = load i32, ptr %14, align 4, !tbaa !87
  %16 = lshr i32 %15, 16
  %17 = zext i32 %16 to i64
  %18 = sub nsw i64 %17, 32768
  store i64 %18, ptr %6, align 8, !tbaa !11
  %19 = load i64, ptr %6, align 8, !tbaa !11
  %20 = trunc i64 %19 to i32
  %21 = icmp eq i32 %20, -1
  br i1 %21, label %22, label %23

22:                                               ; preds = %2
  store i32 -1, ptr %3, align 4
  store i32 1, ptr %7, align 4
  br label %30

23:                                               ; preds = %2
  %24 = load i32, ptr %5, align 4, !tbaa !79
  %25 = zext i32 %24 to i64
  %26 = add nsw i64 %25, 1
  %27 = load i64, ptr %6, align 8, !tbaa !11
  %28 = add nsw i64 %26, %27
  %29 = trunc i64 %28 to i32
  store i32 %29, ptr %3, align 4
  store i32 1, ptr %7, align 4
  br label %30

30:                                               ; preds = %23, %22
  call void @llvm.lifetime.end.p0(i64 8, ptr %6) #11
  %31 = load i32, ptr %3, align 4
  ret i32 %31
}

; Function Attrs: nounwind uwtable
define internal void @jmp_tohere(ptr noundef %0, i32 noundef %1) #0 {
  %3 = alloca ptr, align 8
  %4 = alloca i32, align 4
  store ptr %0, ptr %3, align 8, !tbaa !62
  store i32 %1, ptr %4, align 4, !tbaa !79
  %5 = load ptr, ptr %3, align 8, !tbaa !62
  %6 = getelementptr inbounds nuw %struct.FuncState, ptr %5, i32 0, i32 5
  %7 = load i32, ptr %6, align 8, !tbaa !68
  %8 = load ptr, ptr %3, align 8, !tbaa !62
  %9 = getelementptr inbounds nuw %struct.FuncState, ptr %8, i32 0, i32 6
  store i32 %7, ptr %9, align 4, !tbaa !69
  %10 = load ptr, ptr %3, align 8, !tbaa !62
  %11 = load ptr, ptr %3, align 8, !tbaa !62
  %12 = getelementptr inbounds nuw %struct.FuncState, ptr %11, i32 0, i32 7
  %13 = load i32, ptr %4, align 4, !tbaa !79
  call void @jmp_append(ptr noundef %10, ptr noundef %12, i32 noundef %13)
  ret void
}

; Function Attrs: nounwind uwtable
define internal void @jmp_append(ptr noundef %0, ptr noundef %1, i32 noundef %2) #0 {
  %4 = alloca ptr, align 8
  %5 = alloca ptr, align 8
  %6 = alloca i32, align 4
  %7 = alloca i32, align 4
  %8 = alloca i32, align 4
  store ptr %0, ptr %4, align 8, !tbaa !62
  store ptr %1, ptr %5, align 8, !tbaa !108
  store i32 %2, ptr %6, align 4, !tbaa !79
  %9 = load i32, ptr %6, align 4, !tbaa !79
  %10 = icmp eq i32 %9, -1
  br i1 %10, label %11, label %12

11:                                               ; preds = %3
  br label %34

12:                                               ; preds = %3
  %13 = load ptr, ptr %5, align 8, !tbaa !108
  %14 = load i32, ptr %13, align 4, !tbaa !79
  %15 = icmp eq i32 %14, -1
  br i1 %15, label %16, label %19

16:                                               ; preds = %12
  %17 = load i32, ptr %6, align 4, !tbaa !79
  %18 = load ptr, ptr %5, align 8, !tbaa !108
  store i32 %17, ptr %18, align 4, !tbaa !79
  br label %33

19:                                               ; preds = %12
  call void @llvm.lifetime.start.p0(i64 4, ptr %7) #11
  %20 = load ptr, ptr %5, align 8, !tbaa !108
  %21 = load i32, ptr %20, align 4, !tbaa !79
  store i32 %21, ptr %7, align 4, !tbaa !79
  call void @llvm.lifetime.start.p0(i64 4, ptr %8) #11
  br label %22

22:                                               ; preds = %27, %19
  %23 = load ptr, ptr %4, align 8, !tbaa !62
  %24 = load i32, ptr %7, align 4, !tbaa !79
  %25 = call i32 @jmp_next(ptr noundef %23, i32 noundef %24)
  store i32 %25, ptr %8, align 4, !tbaa !79
  %26 = icmp ne i32 %25, -1
  br i1 %26, label %27, label %29

27:                                               ; preds = %22
  %28 = load i32, ptr %8, align 4, !tbaa !79
  store i32 %28, ptr %7, align 4, !tbaa !79
  br label %22, !llvm.loop !125

29:                                               ; preds = %22
  %30 = load ptr, ptr %4, align 8, !tbaa !62
  %31 = load i32, ptr %7, align 4, !tbaa !79
  %32 = load i32, ptr %6, align 4, !tbaa !79
  call void @jmp_patchins(ptr noundef %30, i32 noundef %31, i32 noundef %32)
  call void @llvm.lifetime.end.p0(i64 4, ptr %8) #11
  call void @llvm.lifetime.end.p0(i64 4, ptr %7) #11
  br label %33

33:                                               ; preds = %29, %16
  br label %34

34:                                               ; preds = %11, %33
  ret void
}

; Function Attrs: nounwind uwtable
define internal i32 @bcemit_jmp(ptr noundef %0) #0 {
  %2 = alloca ptr, align 8
  %3 = alloca i32, align 4
  %4 = alloca i32, align 4
  %5 = alloca ptr, align 8
  store ptr %0, ptr %2, align 8, !tbaa !62
  call void @llvm.lifetime.start.p0(i64 4, ptr %3) #11
  %6 = load ptr, ptr %2, align 8, !tbaa !62
  %7 = getelementptr inbounds nuw %struct.FuncState, ptr %6, i32 0, i32 7
  %8 = load i32, ptr %7, align 8, !tbaa !70
  store i32 %8, ptr %3, align 4, !tbaa !79
  call void @llvm.lifetime.start.p0(i64 4, ptr %4) #11
  %9 = load ptr, ptr %2, align 8, !tbaa !62
  %10 = getelementptr inbounds nuw %struct.FuncState, ptr %9, i32 0, i32 5
  %11 = load i32, ptr %10, align 8, !tbaa !68
  %12 = sub i32 %11, 1
  store i32 %12, ptr %4, align 4, !tbaa !79
  call void @llvm.lifetime.start.p0(i64 8, ptr %5) #11
  %13 = load ptr, ptr %2, align 8, !tbaa !62
  %14 = getelementptr inbounds nuw %struct.FuncState, ptr %13, i32 0, i32 13
  %15 = load ptr, ptr %14, align 8, !tbaa !55
  %16 = load i32, ptr %4, align 4, !tbaa !79
  %17 = zext i32 %16 to i64
  %18 = getelementptr inbounds nuw %struct.BCInsLine, ptr %15, i64 %17
  %19 = getelementptr inbounds nuw %struct.BCInsLine, ptr %18, i32 0, i32 0
  store ptr %19, ptr %5, align 8, !tbaa !108
  %20 = load ptr, ptr %2, align 8, !tbaa !62
  %21 = getelementptr inbounds nuw %struct.FuncState, ptr %20, i32 0, i32 7
  store i32 -1, ptr %21, align 8, !tbaa !70
  %22 = load i32, ptr %4, align 4, !tbaa !79
  %23 = load ptr, ptr %2, align 8, !tbaa !62
  %24 = getelementptr inbounds nuw %struct.FuncState, ptr %23, i32 0, i32 6
  %25 = load i32, ptr %24, align 4, !tbaa !69
  %26 = icmp sge i32 %22, %25
  br i1 %26, label %27, label %39

27:                                               ; preds = %1
  %28 = load ptr, ptr %5, align 8, !tbaa !108
  %29 = load i32, ptr %28, align 4, !tbaa !79
  %30 = and i32 %29, 255
  %31 = icmp eq i32 %30, 50
  br i1 %31, label %32, label %39

32:                                               ; preds = %27
  %33 = load ptr, ptr %5, align 8, !tbaa !108
  %34 = getelementptr inbounds i16, ptr %33, i64 1
  store i16 32767, ptr %34, align 2, !tbaa !110
  %35 = load i32, ptr %4, align 4, !tbaa !79
  %36 = add i32 %35, 1
  %37 = load ptr, ptr %2, align 8, !tbaa !62
  %38 = getelementptr inbounds nuw %struct.FuncState, ptr %37, i32 0, i32 6
  store i32 %36, ptr %38, align 4, !tbaa !69
  br label %48

39:                                               ; preds = %27, %1
  %40 = load ptr, ptr %2, align 8, !tbaa !62
  %41 = load ptr, ptr %2, align 8, !tbaa !62
  %42 = getelementptr inbounds nuw %struct.FuncState, ptr %41, i32 0, i32 8
  %43 = load i32, ptr %42, align 4, !tbaa !71
  %44 = shl i32 %43, 8
  %45 = or i32 88, %44
  %46 = or i32 %45, 2147418112
  %47 = call i32 @bcemit_INS(ptr noundef %40, i32 noundef %46)
  store i32 %47, ptr %4, align 4, !tbaa !79
  br label %48

48:                                               ; preds = %39, %32
  %49 = load ptr, ptr %2, align 8, !tbaa !62
  %50 = load i32, ptr %3, align 4, !tbaa !79
  call void @jmp_append(ptr noundef %49, ptr noundef %4, i32 noundef %50)
  %51 = load i32, ptr %4, align 4, !tbaa !79
  call void @llvm.lifetime.end.p0(i64 8, ptr %5) #11
  call void @llvm.lifetime.end.p0(i64 4, ptr %4) #11
  call void @llvm.lifetime.end.p0(i64 4, ptr %3) #11
  ret i32 %51
}

; Function Attrs: nounwind uwtable
define internal void @invertcond(ptr noundef %0, ptr noundef %1) #0 {
  %3 = alloca ptr, align 8
  %4 = alloca ptr, align 8
  %5 = alloca ptr, align 8
  store ptr %0, ptr %3, align 8, !tbaa !62
  store ptr %1, ptr %4, align 8, !tbaa !127
  call void @llvm.lifetime.start.p0(i64 8, ptr %5) #11
  %6 = load ptr, ptr %3, align 8, !tbaa !62
  %7 = getelementptr inbounds nuw %struct.FuncState, ptr %6, i32 0, i32 13
  %8 = load ptr, ptr %7, align 8, !tbaa !55
  %9 = load ptr, ptr %4, align 8, !tbaa !127
  %10 = getelementptr inbounds nuw %struct.ExpDesc, ptr %9, i32 0, i32 0
  %11 = getelementptr inbounds nuw %struct.anon.3, ptr %10, i32 0, i32 0
  %12 = load i32, ptr %11, align 8, !tbaa !32
  %13 = sub i32 %12, 1
  %14 = zext i32 %13 to i64
  %15 = getelementptr inbounds nuw %struct.BCInsLine, ptr %8, i64 %14
  %16 = getelementptr inbounds nuw %struct.BCInsLine, ptr %15, i32 0, i32 0
  store ptr %16, ptr %5, align 8, !tbaa !108
  %17 = load ptr, ptr %5, align 8, !tbaa !108
  %18 = load i32, ptr %17, align 4, !tbaa !79
  %19 = and i32 %18, 255
  %20 = xor i32 %19, 1
  %21 = trunc i32 %20 to i8
  %22 = load ptr, ptr %5, align 8, !tbaa !108
  %23 = getelementptr inbounds i8, ptr %22, i64 0
  store i8 %21, ptr %23, align 1, !tbaa !32
  call void @llvm.lifetime.end.p0(i64 8, ptr %5) #11
  ret void
}

; Function Attrs: nounwind uwtable
define internal void @bcemit_branch_t(ptr noundef %0, ptr noundef %1) #0 {
  %3 = alloca ptr, align 8
  %4 = alloca ptr, align 8
  %5 = alloca i32, align 4
  store ptr %0, ptr %3, align 8, !tbaa !62
  store ptr %1, ptr %4, align 8, !tbaa !127
  call void @llvm.lifetime.start.p0(i64 4, ptr %5) #11
  %6 = load ptr, ptr %3, align 8, !tbaa !62
  %7 = load ptr, ptr %4, align 8, !tbaa !127
  call void @expr_discharge(ptr noundef %6, ptr noundef %7)
  %8 = load ptr, ptr %4, align 8, !tbaa !127
  %9 = getelementptr inbounds nuw %struct.ExpDesc, ptr %8, i32 0, i32 1
  %10 = load i32, ptr %9, align 8, !tbaa !117
  %11 = icmp eq i32 %10, 3
  br i1 %11, label %22, label %12

12:                                               ; preds = %2
  %13 = load ptr, ptr %4, align 8, !tbaa !127
  %14 = getelementptr inbounds nuw %struct.ExpDesc, ptr %13, i32 0, i32 1
  %15 = load i32, ptr %14, align 8, !tbaa !117
  %16 = icmp eq i32 %15, 4
  br i1 %16, label %22, label %17

17:                                               ; preds = %12
  %18 = load ptr, ptr %4, align 8, !tbaa !127
  %19 = getelementptr inbounds nuw %struct.ExpDesc, ptr %18, i32 0, i32 1
  %20 = load i32, ptr %19, align 8, !tbaa !117
  %21 = icmp eq i32 %20, 2
  br i1 %21, label %22, label %23

22:                                               ; preds = %17, %12, %2
  store i32 -1, ptr %5, align 4, !tbaa !79
  br label %56

23:                                               ; preds = %17
  %24 = load ptr, ptr %4, align 8, !tbaa !127
  %25 = getelementptr inbounds nuw %struct.ExpDesc, ptr %24, i32 0, i32 1
  %26 = load i32, ptr %25, align 8, !tbaa !117
  %27 = icmp eq i32 %26, 10
  br i1 %27, label %28, label %35

28:                                               ; preds = %23
  %29 = load ptr, ptr %3, align 8, !tbaa !62
  %30 = load ptr, ptr %4, align 8, !tbaa !127
  call void @invertcond(ptr noundef %29, ptr noundef %30)
  %31 = load ptr, ptr %4, align 8, !tbaa !127
  %32 = getelementptr inbounds nuw %struct.ExpDesc, ptr %31, i32 0, i32 0
  %33 = getelementptr inbounds nuw %struct.anon.3, ptr %32, i32 0, i32 0
  %34 = load i32, ptr %33, align 8, !tbaa !32
  store i32 %34, ptr %5, align 4, !tbaa !79
  br label %55

35:                                               ; preds = %23
  %36 = load ptr, ptr %4, align 8, !tbaa !127
  %37 = getelementptr inbounds nuw %struct.ExpDesc, ptr %36, i32 0, i32 1
  %38 = load i32, ptr %37, align 8, !tbaa !117
  %39 = icmp eq i32 %38, 1
  br i1 %39, label %45, label %40

40:                                               ; preds = %35
  %41 = load ptr, ptr %4, align 8, !tbaa !127
  %42 = getelementptr inbounds nuw %struct.ExpDesc, ptr %41, i32 0, i32 1
  %43 = load i32, ptr %42, align 8, !tbaa !117
  %44 = icmp eq i32 %43, 0
  br i1 %44, label %45, label %50

45:                                               ; preds = %40, %35
  %46 = load ptr, ptr %3, align 8, !tbaa !62
  %47 = load ptr, ptr %4, align 8, !tbaa !127
  call void @expr_toreg_nobranch(ptr noundef %46, ptr noundef %47, i32 noundef 255)
  %48 = load ptr, ptr %3, align 8, !tbaa !62
  %49 = call i32 @bcemit_jmp(ptr noundef %48)
  store i32 %49, ptr %5, align 4, !tbaa !79
  br label %54

50:                                               ; preds = %40
  %51 = load ptr, ptr %3, align 8, !tbaa !62
  %52 = load ptr, ptr %4, align 8, !tbaa !127
  %53 = call i32 @bcemit_branch(ptr noundef %51, ptr noundef %52, i32 noundef 0)
  store i32 %53, ptr %5, align 4, !tbaa !79
  br label %54

54:                                               ; preds = %50, %45
  br label %55

55:                                               ; preds = %54, %28
  br label %56

56:                                               ; preds = %55, %22
  %57 = load ptr, ptr %3, align 8, !tbaa !62
  %58 = load ptr, ptr %4, align 8, !tbaa !127
  %59 = getelementptr inbounds nuw %struct.ExpDesc, ptr %58, i32 0, i32 3
  %60 = load i32, ptr %5, align 4, !tbaa !79
  call void @jmp_append(ptr noundef %57, ptr noundef %59, i32 noundef %60)
  %61 = load ptr, ptr %3, align 8, !tbaa !62
  %62 = load ptr, ptr %4, align 8, !tbaa !127
  %63 = getelementptr inbounds nuw %struct.ExpDesc, ptr %62, i32 0, i32 2
  %64 = load i32, ptr %63, align 4, !tbaa !129
  call void @jmp_tohere(ptr noundef %61, i32 noundef %64)
  %65 = load ptr, ptr %4, align 8, !tbaa !127
  %66 = getelementptr inbounds nuw %struct.ExpDesc, ptr %65, i32 0, i32 2
  store i32 -1, ptr %66, align 4, !tbaa !129
  call void @llvm.lifetime.end.p0(i64 4, ptr %5) #11
  ret void
}