; Function Attrs: nounwind uwtable
define internal fastcc void @bcemit_branch_t(ptr noundef captures(none) %0, ptr noundef nonnull %1) unnamed_addr #0 {
  tail call fastcc void @expr_discharge(ptr noundef %0, ptr noundef %1)
  %3 = getelementptr inbounds nuw i8, ptr %1, i64 8
  %4 = load i32, ptr %3, align 8, !tbaa !79
  switch i32 %4, label %62 [
    i32 3, label %jmp_append.exit
    i32 4, label %jmp_append.exit
    i32 2, label %jmp_append.exit
    i32 10, label %5
    i32 1, label %14
    i32 0, label %14
  ]

5:                                                ; preds = %2
  %6 = getelementptr i8, ptr %0, i64 72
  %.val = load ptr, ptr %6, align 8, !tbaa !67
  %.val22 = load i32, ptr %1, align 8, !tbaa !25
  %7 = add i32 %.val22, -1
  %8 = zext i32 %7 to i64
  %9 = getelementptr inbounds nuw %struct.BCInsLine, ptr %.val, i64 %8
  %10 = load i32, ptr %9, align 4, !tbaa !82
  %11 = trunc i32 %10 to i8
  %12 = xor i8 %11, 1
  store i8 %12, ptr %9, align 1, !tbaa !25
  %13 = load i32, ptr %1, align 8, !tbaa !25
  br label %bcemit_jmp.exit

14:                                               ; preds = %2, %2
  tail call fastcc void @expr_toreg_nobranch(ptr noundef %0, ptr noundef %1, i32 noundef 255)
  %15 = getelementptr inbounds nuw i8, ptr %0, i64 48
  %16 = load i32, ptr %15, align 8, !tbaa !53
  %17 = getelementptr inbounds nuw i8, ptr %0, i64 40
  %18 = load i32, ptr %17, align 8, !tbaa !51
  %19 = add i32 %18, -1
  %20 = getelementptr inbounds nuw i8, ptr %0, i64 72
  %21 = load ptr, ptr %20, align 8, !tbaa !67
  %22 = zext i32 %19 to i64
  %23 = getelementptr inbounds nuw %struct.BCInsLine, ptr %21, i64 %22
  store i32 -1, ptr %15, align 8, !tbaa !53
  %24 = getelementptr inbounds nuw i8, ptr %0, i64 44
  %25 = load i32, ptr %24, align 4, !tbaa !52
  %.not.i = icmp slt i32 %19, %25
  br i1 %.not.i, label %32, label %26

26:                                               ; preds = %14
  %27 = load i32, ptr %23, align 4, !tbaa !82
  %28 = and i32 %27, 255
  %29 = icmp eq i32 %28, 50
  br i1 %29, label %30, label %32

30:                                               ; preds = %26
  %31 = getelementptr inbounds nuw i8, ptr %23, i64 2
  store i16 32767, ptr %31, align 2, !tbaa !70
  store i32 %18, ptr %24, align 4, !tbaa !52
  br label %38

32:                                               ; preds = %26, %14
  %33 = getelementptr inbounds nuw i8, ptr %0, i64 52
  %34 = load i32, ptr %33, align 4, !tbaa !83
  %35 = shl i32 %34, 8
  %36 = or i32 %35, 2147418200
  %37 = tail call fastcc i32 @bcemit_INS(ptr noundef nonnull %0, i32 noundef %36)
  br label %38

38:                                               ; preds = %32, %30
  %.0.i = phi i32 [ %37, %32 ], [ %19, %30 ]
  %39 = icmp eq i32 %16, -1
  br i1 %39, label %bcemit_jmp.exit, label %40

40:                                               ; preds = %38
  %41 = icmp eq i32 %.0.i, -1
  br i1 %41, label %bcemit_jmp.exit.thread33, label %.preheader.i.i

.preheader.i.i:                                   ; preds = %40
  %.val.i.i = load ptr, ptr %20, align 8, !tbaa !67
  br label %42

42:                                               ; preds = %42, %.preheader.i.i
  %.0.i.i = phi i32 [ %52, %42 ], [ %.0.i, %.preheader.i.i ]
  %43 = zext i32 %.0.i.i to i64
  %44 = getelementptr inbounds nuw %struct.BCInsLine, ptr %.val.i.i, i64 %43
  %45 = load i32, ptr %44, align 4, !tbaa !68
  %46 = lshr i32 %45, 16
  %47 = zext nneg i32 %46 to i64
  %48 = add nsw i64 %47, -32768
  %49 = icmp eq i64 %48, -1
  %50 = add nuw nsw i64 %43, 1
  %51 = add nsw i64 %50, %48
  %52 = trunc i64 %51 to i32
  %.not13.i.i = icmp eq i32 %52, -1
  %.not.i.i = select i1 %49, i1 true, i1 %.not13.i.i
  br i1 %.not.i.i, label %53, label %42, !llvm.loop !84

53:                                               ; preds = %42
  %reass.sub.i.i.i = sub i32 %16, %.0.i.i
  %54 = add i32 %reass.sub.i.i.i, 32767
  %55 = icmp ugt i32 %54, 65535
  br i1 %55, label %56, label %jmp_patchins.exit.i.i

56:                                               ; preds = %53
  %57 = getelementptr inbounds nuw i8, ptr %0, i64 8
  %58 = load ptr, ptr %57, align 8, !tbaa !47
  tail call fastcc void @err_syntax(ptr noundef %58, i32 noundef 2399) #13
  unreachable

jmp_patchins.exit.i.i:                            ; preds = %53
  %59 = getelementptr inbounds nuw %struct.BCInsLine, ptr %.val.i.i, i64 %43
  %60 = trunc nuw i32 %54 to i16
  %61 = getelementptr inbounds nuw i8, ptr %59, i64 2
  store i16 %60, ptr %61, align 2, !tbaa !70
  br label %bcemit_jmp.exit

62:                                               ; preds = %2
  %63 = tail call fastcc i32 @bcemit_branch(ptr noundef %0, ptr noundef %1, i32 noundef 0)
  br label %bcemit_jmp.exit

bcemit_jmp.exit:                                  ; preds = %jmp_patchins.exit.i.i, %38, %5, %62
  %.0 = phi i32 [ %13, %5 ], [ %63, %62 ], [ %.0.i, %38 ], [ %.0.i, %jmp_patchins.exit.i.i ]
  %64 = icmp eq i32 %.0, -1
  br i1 %64, label %jmp_append.exit, label %bcemit_jmp.exit.thread33

bcemit_jmp.exit.thread33:                         ; preds = %40, %bcemit_jmp.exit
  %.035 = phi i32 [ %.0, %bcemit_jmp.exit ], [ %16, %40 ]
  %65 = getelementptr inbounds nuw i8, ptr %1, i64 16
  %66 = load i32, ptr %65, align 4, !tbaa !82
  %67 = icmp eq i32 %66, -1
  br i1 %67, label %69, label %.preheader.i

.preheader.i:                                     ; preds = %bcemit_jmp.exit.thread33
  %68 = getelementptr i8, ptr %0, i64 72
  %.val.i = load ptr, ptr %68, align 8, !tbaa !67
  br label %70

69:                                               ; preds = %bcemit_jmp.exit.thread33
  store i32 %.035, ptr %65, align 4, !tbaa !82
  br label %jmp_append.exit

70:                                               ; preds = %70, %.preheader.i
  %.0.i23 = phi i32 [ %80, %70 ], [ %66, %.preheader.i ]
  %71 = zext i32 %.0.i23 to i64
  %72 = getelementptr inbounds nuw %struct.BCInsLine, ptr %.val.i, i64 %71
  %73 = load i32, ptr %72, align 4, !tbaa !68
  %74 = lshr i32 %73, 16
  %75 = zext nneg i32 %74 to i64
  %76 = add nsw i64 %75, -32768
  %77 = icmp eq i64 %76, -1
  %78 = add nuw nsw i64 %71, 1
  %79 = add nsw i64 %78, %76
  %80 = trunc i64 %79 to i32
  %.not13.i = icmp eq i32 %80, -1
  %.not.i24 = select i1 %77, i1 true, i1 %.not13.i
  br i1 %.not.i24, label %81, label %70, !llvm.loop !84

81:                                               ; preds = %70
  %reass.sub.i.i = sub i32 %.035, %.0.i23
  %82 = add i32 %reass.sub.i.i, 32767
  %83 = icmp ugt i32 %82, 65535
  br i1 %83, label %84, label %jmp_patchins.exit.i

84:                                               ; preds = %81
  %85 = getelementptr inbounds nuw i8, ptr %0, i64 8
  %86 = load ptr, ptr %85, align 8, !tbaa !47
  tail call fastcc void @err_syntax(ptr noundef %86, i32 noundef 2399) #13
  unreachable

jmp_patchins.exit.i:                              ; preds = %81
  %87 = getelementptr inbounds nuw %struct.BCInsLine, ptr %.val.i, i64 %71
  %88 = trunc nuw i32 %82 to i16
  %89 = getelementptr inbounds nuw i8, ptr %87, i64 2
  store i16 %88, ptr %89, align 2, !tbaa !70
  br label %jmp_append.exit

jmp_append.exit:                                  ; preds = %2, %2, %2, %bcemit_jmp.exit, %69, %jmp_patchins.exit.i
  %90 = getelementptr inbounds nuw i8, ptr %1, i64 12
  %91 = load i32, ptr %90, align 4, !tbaa !152
  %92 = getelementptr inbounds nuw i8, ptr %0, i64 40
  %93 = load i32, ptr %92, align 8, !tbaa !51
  %94 = getelementptr inbounds nuw i8, ptr %0, i64 44
  store i32 %93, ptr %94, align 4, !tbaa !52
  %95 = getelementptr inbounds nuw i8, ptr %0, i64 48
  %96 = icmp eq i32 %91, -1
  br i1 %96, label %jmp_tohere.exit, label %97

97:                                               ; preds = %jmp_append.exit
  %98 = load i32, ptr %95, align 4, !tbaa !82
  %99 = icmp eq i32 %98, -1
  br i1 %99, label %101, label %.preheader.i.i25

.preheader.i.i25:                                 ; preds = %97
  %100 = getelementptr i8, ptr %0, i64 72
  %.val.i.i26 = load ptr, ptr %100, align 8, !tbaa !67
  br label %102

101:                                              ; preds = %97
  store i32 %91, ptr %95, align 4, !tbaa !82
  br label %jmp_tohere.exit

102:                                              ; preds = %102, %.preheader.i.i25
  %.0.i.i27 = phi i32 [ %112, %102 ], [ %98, %.preheader.i.i25 ]
  %103 = zext i32 %.0.i.i27 to i64
  %104 = getelementptr inbounds nuw %struct.BCInsLine, ptr %.val.i.i26, i64 %103
  %105 = load i32, ptr %104, align 4, !tbaa !68
  %106 = lshr i32 %105, 16
  %107 = zext nneg i32 %106 to i64
  %108 = add nsw i64 %107, -32768
  %109 = icmp eq i64 %108, -1
  %110 = add nuw nsw i64 %103, 1
  %111 = add nsw i64 %110, %108
  %112 = trunc i64 %111 to i32
  %.not13.i.i28 = icmp eq i32 %112, -1
  %.not.i.i29 = select i1 %109, i1 true, i1 %.not13.i.i28
  br i1 %.not.i.i29, label %113, label %102, !llvm.loop !84

113:                                              ; preds = %102
  %reass.sub.i.i.i30 = sub i32 %91, %.0.i.i27
  %114 = add i32 %reass.sub.i.i.i30, 32767
  %115 = icmp ugt i32 %114, 65535
  br i1 %115, label %116, label %jmp_patchins.exit.i.i31

116:                                              ; preds = %113
  %117 = getelementptr inbounds nuw i8, ptr %0, i64 8
  %118 = load ptr, ptr %117, align 8, !tbaa !47
  tail call fastcc void @err_syntax(ptr noundef %118, i32 noundef 2399) #13
  unreachable

jmp_patchins.exit.i.i31:                          ; preds = %113
  %119 = getelementptr inbounds nuw %struct.BCInsLine, ptr %.val.i.i26, i64 %103
  %120 = trunc nuw i32 %114 to i16
  %121 = getelementptr inbounds nuw i8, ptr %119, i64 2
  store i16 %120, ptr %121, align 2, !tbaa !70
  br label %jmp_tohere.exit

jmp_tohere.exit:                                  ; preds = %jmp_append.exit, %101, %jmp_patchins.exit.i.i31
  store i32 -1, ptr %90, align 4, !tbaa !152
  ret void
}